target datalayout = "e-m:e-p270:32:32-p271:32:32-p272:64:64-i64:64-i128:128-f80:128-n8:16:32:64-S128"
target triple = "x86_64-pc-linux-gnu"

%"class.std::optional.76" = type { %"struct.std::_Optional_base.77" }
%"struct.std::_Optional_base.77" = type { %"struct.std::_Optional_payload.79" }
%"struct.std::_Optional_payload.79" = type { %"struct.std::_Optional_payload_base.base.81", [7 x i8] }
%"struct.std::_Optional_payload_base.base.81" = type <{ %"union.std::_Optional_payload_base<const Luau::Type *>::_Storage", i8 }>
%"union.std::_Optional_payload_base<const Luau::Type *>::_Storage" = type { ptr }
%class.anon.106 = type { ptr, ptr }
%"struct.Luau::Unifiable::Error.373" = type { i32, [4 x i8], %"class.std::optional.76" }

; Function Attrs: inlinehint mustprogress uwtable
define internal void @"_ZZN4Luau16toStringDetailedEPKNS_11TypePackVarERNS_15ToStringOptionsEENK3$_0clINS_9Unifiable5ErrorIPKNS_4TypeEEEEEDaT_"(ptr noundef nonnull align 8 dereferenceable(16) %0, ptr noundef byval(%"struct.Luau::Unifiable::Error.373") align 8 %1) #8 align 2 {
  %3 = alloca ptr, align 8
  store ptr %0, ptr %3, align 8, !tbaa !137
  %4 = load ptr, ptr %3, align 8
  %5 = getelementptr inbounds nuw %class.anon.106, ptr %4, i32 0, i32 0
  %6 = load ptr, ptr %5, align 8, !tbaa !1066
  %7 = getelementptr inbounds nuw %class.anon.106, ptr %4, i32 0, i32 1
  %8 = load ptr, ptr %7, align 8, !tbaa !243
  call void @_ZN4Luau15TypeStringifierclEPKNS_4TypeERKNS_9Unifiable5ErrorIS3_EE(ptr noundef nonnull align 8 dereferenceable(8) %6, ptr noundef %8, ptr noundef nonnull align 8 dereferenceable(24) %1)
  ret void
}

; Function Attrs: mustprogress uwtable
define internal void @"_ZN4LuauL8fnVisitVIZNS_16toStringDetailedEPKNS_11TypePackVarERNS_15ToStringOptionsEE3$_0KNS_9Unifiable5ErrorIPKNS_4TypeEEEEEvRT_PNSt11conditionalIXsr3stdE10is_const_vIT0_EEKvvE4typeE"(ptr noundef nonnull align 8 dereferenceable(16) %0, ptr noundef %1) #5 {
  %3 = alloca ptr, align 8
  %4 = alloca ptr, align 8
  %5 = alloca %"struct.Luau::Unifiable::Error.373", align 8
  store ptr %0, ptr %3, align 8, !tbaa !137
  store ptr %1, ptr %4, align 8, !tbaa !137
  %6 = load ptr, ptr %3, align 8, !tbaa !137
  %7 = load ptr, ptr %4, align 8, !tbaa !137
  call void @llvm.memcpy.p0.p0.i64(ptr align 8 %5, ptr align 8 %7, i64 24, i1 false)
  call void @"_ZZN4Luau16toStringDetailedEPKNS_11TypePackVarERNS_15ToStringOptionsEENK3$_0clINS_9Unifiable5ErrorIPKNS_4TypeEEEEEDaT_"(ptr noundef nonnull align 8 dereferenceable(16) %6, ptr noundef byval(%"struct.Luau::Unifiable::Error.373") align 8 %5)
  ret void
}